target datalayout = "e-m:e-p270:32:32-p271:32:32-p272:64:64-i64:64-i128:128-f80:128-n8:16:32:64-S128"
target triple = "x86_64-unknown-linux-gnu"

%struct.QEnumLookup = type { ptr, ptr, i32 }
%struct.DisplayOptions = type { i32, i8, i8, i8, i8, i8, i8, i8, i32, %union.anon.11 }
%union.anon.11 = type { %struct.DisplayDBus }
%struct.DisplayDBus = type { ptr, ptr, i8, i8, ptr }

@.str.4 = private unnamed_addr constant [13 x i8] c"dbus-display\00", align 1
@.str.10 = private unnamed_addr constant [4 x i8] c"p2p\00", align 1
@.str.11 = private unnamed_addr constant [5 x i8] c"addr\00", align 1
@.str.12 = private unnamed_addr constant [9 x i8] c"audiodev\00", align 1
@.str.13 = private unnamed_addr constant [8 x i8] c"gl-mode\00", align 1
@DisplayGLMode_lookup = external constant %struct.QEnumLookup, align 8
@.str.16 = private unnamed_addr constant [1 x i8] zeroinitializer, align 1
@.str.38 = private unnamed_addr constant [51 x i8] c"dbus: can't accept both addr=X and p2p=yes options\00", align 1
@using_dbus_display = external global i32, align 4
@error_fatal = external global ptr, align 8
@.str.39 = private unnamed_addr constant [4 x i8] c"yes\00", align 1
@.str.40 = private unnamed_addr constant [3 x i8] c"no\00", align 1

; Function Attrs: nounwind sspstrong uwtable
define internal ptr @yes_no(i1 noundef zeroext %b) #0 {
entry:
  %b.addr = alloca i8, align 1
  %frombool = zext i1 %b to i8
  store i8 %frombool, ptr %b.addr, align 1
  %0 = load i8, ptr %b.addr, align 1
  %tobool = trunc i8 %0 to i1
  %cond = select i1 %tobool, ptr @.str.39, ptr @.str.40
  ret ptr %cond
}

; Function Attrs: nounwind sspstrong uwtable
define internal void @dbus_init(ptr noundef %ds, ptr noundef %opts) #0 {
entry:
  %ds.addr = alloca ptr, align 8
  %opts.addr = alloca ptr, align 8
  %mode = alloca i32, align 4
  store ptr %ds, ptr %ds.addr, align 8
  store ptr %opts, ptr %opts.addr, align 8
  %0 = load ptr, ptr %opts.addr, align 8
  %has_gl = getelementptr inbounds %struct.DisplayOptions, ptr %0, i32 0, i32 7
  %1 = load i8, ptr %has_gl, align 2
  %tobool = trunc i8 %1 to i1
  br i1 %tobool, label %cond.true, label %cond.false

cond.true:                                        ; preds = %entry
  %2 = load ptr, ptr %opts.addr, align 8
  %gl = getelementptr inbounds %struct.DisplayOptions, ptr %2, i32 0, i32 8
  %3 = load i32, ptr %gl, align 4
  br label %cond.end

cond.false:                                       ; preds = %entry
  br label %cond.end

cond.end:                                         ; preds = %cond.false, %cond.true
  %cond = phi i32 [ %3, %cond.true ], [ 0, %cond.false ]
  store i32 %cond, ptr %mode, align 4
  %4 = load ptr, ptr %opts.addr, align 8
  %u = getelementptr inbounds %struct.DisplayOptions, ptr %4, i32 0, i32 9
  %addr = getelementptr inbounds %struct.DisplayDBus, ptr %u, i32 0, i32 1
  %5 = load ptr, ptr %addr, align 8
  %tobool1 = icmp ne ptr %5, null
  br i1 %tobool1, label %land.lhs.true, label %if.end

land.lhs.true:                                    ; preds = %cond.end
  %6 = load ptr, ptr %opts.addr, align 8
  %u2 = getelementptr inbounds %struct.DisplayOptions, ptr %6, i32 0, i32 9
  %p2p = getelementptr inbounds %struct.DisplayDBus, ptr %u2, i32 0, i32 3
  %7 = load i8, ptr %p2p, align 1
  %tobool3 = trunc i8 %7 to i1
  br i1 %tobool3, label %if.then, label %if.end

if.then:                                          ; preds = %land.lhs.true
  call void (ptr, ...) @error_report(ptr noundef @.str.38)
  call void @exit(i32 noundef 1) #6
  unreachable

if.end:                                           ; preds = %land.lhs.true, %cond.end
  store i32 1, ptr @using_dbus_display, align 4
  %call = call ptr @object_get_objects_root()
  %8 = load ptr, ptr %opts.addr, align 8
  %u4 = getelementptr inbounds %struct.DisplayOptions, ptr %8, i32 0, i32 9
  %addr5 = getelementptr inbounds %struct.DisplayDBus, ptr %u4, i32 0, i32 1
  %9 = load ptr, ptr %addr5, align 8
  %tobool6 = icmp ne ptr %9, null
  br i1 %tobool6, label %cond.true7, label %cond.false8

cond.true7:                                       ; preds = %if.end
  br label %cond.end9

cond.false8:                                      ; preds = %if.end
  br label %cond.end9

cond.end9:                                        ; preds = %cond.false8, %cond.true7
  %cond10 = phi ptr [ %9, %cond.true7 ], [ @.str.16, %cond.false8 ]
  %10 = load ptr, ptr %opts.addr, align 8
  %u11 = getelementptr inbounds %struct.DisplayOptions, ptr %10, i32 0, i32 9
  %audiodev = getelementptr inbounds %struct.DisplayDBus, ptr %u11, i32 0, i32 4
  %11 = load ptr, ptr %audiodev, align 8
  %tobool12 = icmp ne ptr %11, null
  br i1 %tobool12, label %cond.true13, label %cond.false14

cond.true13:                                      ; preds = %cond.end9
  br label %cond.end15

cond.false14:                                     ; preds = %cond.end9
  br label %cond.end15

cond.end15:                                       ; preds = %cond.false14, %cond.true13
  %cond16 = phi ptr [ %11, %cond.true13 ], [ @.str.16, %cond.false14 ]
  %12 = load i32, ptr %mode, align 4
  %call17 = call ptr @qapi_enum_lookup(ptr noundef @DisplayGLMode_lookup, i32 noundef %12)
  %13 = load ptr, ptr %opts.addr, align 8
  %u18 = getelementptr inbounds %struct.DisplayOptions, ptr %13, i32 0, i32 9
  %p2p19 = getelementptr inbounds %struct.DisplayDBus, ptr %u18, i32 0, i32 3
  %14 = load i8, ptr %p2p19, align 1
  %tobool20 = trunc i8 %14 to i1
  %call21 = call ptr @yes_no(i1 noundef zeroext %tobool20)
  %call22 = call ptr (ptr, ptr, ptr, ptr, ...) @object_new_with_props(ptr noundef @.str.4, ptr noundef %call, ptr noundef @.str.4, ptr noundef @error_fatal, ptr noundef @.str.11, ptr noundef %cond10, ptr noundef @.str.12, ptr noundef %cond16, ptr noundef @.str.13, ptr noundef %call17, ptr noundef @.str.10, ptr noundef %call21, ptr noundef null)
  ret void
}