; Function Attrs: nounwind sspstrong uwtable
define internal void @dbus_init(ptr readnone captures(none) %ds, ptr noundef readonly captures(none) %opts) #0 {
entry:
  %has_gl = getelementptr inbounds nuw i8, ptr %opts, i64 10
  %0 = load i8, ptr %has_gl, align 2
  %tobool = trunc i8 %0 to i1
  br i1 %tobool, label %cond.true, label %cond.end

cond.true:                                        ; preds = %entry
  %gl = getelementptr inbounds nuw i8, ptr %opts, i64 12
  %1 = load i32, ptr %gl, align 4
  br label %cond.end

cond.end:                                         ; preds = %entry, %cond.true
  %cond = phi i32 [ %1, %cond.true ], [ 0, %entry ]
  %addr = getelementptr inbounds nuw i8, ptr %opts, i64 24
  %2 = load ptr, ptr %addr, align 8
  %tobool1.not = icmp eq ptr %2, null
  br i1 %tobool1.not, label %if.end, label %land.lhs.true

land.lhs.true:                                    ; preds = %cond.end
  %p2p = getelementptr inbounds nuw i8, ptr %opts, i64 33
  %3 = load i8, ptr %p2p, align 1
  %tobool3 = trunc i8 %3 to i1
  br i1 %tobool3, label %if.then, label %if.end

if.then:                                          ; preds = %land.lhs.true
  tail call void (ptr, ...) @error_report(ptr noundef nonnull @.str.38) #5
  tail call void @exit(i32 noundef 1) #8
  unreachable

if.end:                                           ; preds = %land.lhs.true, %cond.end
  store i32 1, ptr @using_dbus_display, align 4
  %call = tail call ptr @object_get_objects_root() #5
  %4 = load ptr, ptr %addr, align 8
  %tobool6.not = icmp eq ptr %4, null
  %..str.16 = select i1 %tobool6.not, ptr @.str.16, ptr %4
  %audiodev = getelementptr inbounds nuw i8, ptr %opts, i64 40
  %5 = load ptr, ptr %audiodev, align 8
  %tobool12.not = icmp eq ptr %5, null
  %cond16 = select i1 %tobool12.not, ptr @.str.16, ptr %5
  %call17 = tail call ptr @qapi_enum_lookup(ptr noundef nonnull @DisplayGLMode_lookup, i32 noundef %cond) #5
  %p2p19 = getelementptr inbounds nuw i8, ptr %opts, i64 33
  %6 = load i8, ptr %p2p19, align 1
  %tobool20 = trunc i8 %6 to i1
  %cond.i = select i1 %tobool20, ptr @.str.39, ptr @.str.40
  %call22 = tail call ptr (ptr, ptr, ptr, ptr, ...) @object_new_with_props(ptr noundef nonnull @.str.4, ptr noundef %call, ptr noundef nonnull @.str.4, ptr noundef nonnull @error_fatal, ptr noundef nonnull @.str.11, ptr noundef nonnull %..str.16, ptr noundef nonnull @.str.12, ptr noundef nonnull %cond16, ptr noundef nonnull @.str.13, ptr noundef %call17, ptr noundef nonnull @.str.10, ptr noundef nonnull %cond.i, ptr noundef null) #5
  ret void
}